target datalayout = "e-m:e-p270:32:32-p271:32:32-p272:64:64-i64:64-i128:128-f80:128-n8:16:32:64-S128"
target triple = "x86_64-pc-linux-gnu"

%struct.mime_encoder = type { ptr, ptr, ptr }
%struct.curl_mimepart = type { ptr, ptr, i32, i32, ptr, ptr, ptr, ptr, ptr, ptr, ptr, ptr, ptr, ptr, ptr, i64, %struct.mime_state, ptr, %struct.mime_encoder_state, i64 }
%struct.mime_state = type { i32, ptr, i64 }
%struct.mime_encoder_state = type { i64, i64, i64, [256 x i8] }
%struct.curl_mime = type { ptr, ptr, ptr, [47 x i8], %struct.mime_state }
%struct.curl_slist = type { ptr, ptr }

@.str.18 = private unnamed_addr constant [13 x i8] c"Content-Type\00", align 1

; Function Attrs: nounwind uwtable
define internal ptr @match_header(ptr noundef %0, ptr noundef %1, i64 noundef %2) #0 {
  %4 = alloca ptr, align 8
  %5 = alloca ptr, align 8
  %6 = alloca i64, align 8
  %7 = alloca ptr, align 8
  store ptr %0, ptr %4, align 8, !tbaa !47
  store ptr %1, ptr %5, align 8, !tbaa !49
  store i64 %2, ptr %6, align 8, !tbaa !50
  call void @llvm.lifetime.start.p0(i64 8, ptr %7) #8
  store ptr null, ptr %7, align 8, !tbaa !49
  %8 = load ptr, ptr %4, align 8, !tbaa !47
  %9 = getelementptr inbounds nuw %struct.curl_slist, ptr %8, i32 0, i32 0
  %10 = load ptr, ptr %9, align 8, !tbaa !78
  %11 = load ptr, ptr %5, align 8, !tbaa !49
  %12 = load i64, ptr %6, align 8, !tbaa !50
  %13 = call i32 @curl_strnequal(ptr noundef %10, ptr noundef %11, i64 noundef %12)
  %14 = icmp ne i32 %13, 0
  br i1 %14, label %15, label %41

15:                                               ; preds = %3
  %16 = load ptr, ptr %4, align 8, !tbaa !47
  %17 = getelementptr inbounds nuw %struct.curl_slist, ptr %16, i32 0, i32 0
  %18 = load ptr, ptr %17, align 8, !tbaa !78
  %19 = load i64, ptr %6, align 8, !tbaa !50
  %20 = getelementptr inbounds nuw i8, ptr %18, i64 %19
  %21 = load i8, ptr %20, align 1, !tbaa !88
  %22 = sext i8 %21 to i32
  %23 = icmp eq i32 %22, 58
  br i1 %23, label %24, label %41

24:                                               ; preds = %15
  %25 = load ptr, ptr %4, align 8, !tbaa !47
  %26 = getelementptr inbounds nuw %struct.curl_slist, ptr %25, i32 0, i32 0
  %27 = load ptr, ptr %26, align 8, !tbaa !78
  %28 = load i64, ptr %6, align 8, !tbaa !50
  %29 = getelementptr inbounds nuw i8, ptr %27, i64 %28
  %30 = getelementptr inbounds i8, ptr %29, i64 1
  store ptr %30, ptr %7, align 8, !tbaa !49
  br label %31

31:                                               ; preds = %37, %24
  %32 = load ptr, ptr %7, align 8, !tbaa !49
  %33 = load i8, ptr %32, align 1, !tbaa !88
  %34 = sext i8 %33 to i32
  %35 = icmp eq i32 %34, 32
  br i1 %35, label %36, label %40

36:                                               ; preds = %31
  br label %37

37:                                               ; preds = %36
  %38 = load ptr, ptr %7, align 8, !tbaa !49
  %39 = getelementptr inbounds nuw i8, ptr %38, i32 1
  store ptr %39, ptr %7, align 8, !tbaa !49
  br label %31, !llvm.loop !117

40:                                               ; preds = %31
  br label %41

41:                                               ; preds = %40, %15, %3
  %42 = load ptr, ptr %7, align 8, !tbaa !49
  call void @llvm.lifetime.end.p0(i64 8, ptr %7) #8
  ret ptr %42
}

; Function Attrs: nounwind uwtable
define internal i64 @slist_size(ptr noundef %0, i64 noundef %1, ptr noundef %2, i64 noundef %3) #0 {
  %5 = alloca ptr, align 8
  %6 = alloca i64, align 8
  %7 = alloca ptr, align 8
  %8 = alloca i64, align 8
  %9 = alloca i64, align 8
  store ptr %0, ptr %5, align 8, !tbaa !47
  store i64 %1, ptr %6, align 8, !tbaa !50
  store ptr %2, ptr %7, align 8, !tbaa !49
  store i64 %3, ptr %8, align 8, !tbaa !50
  call void @llvm.lifetime.start.p0(i64 8, ptr %9) #8
  store i64 0, ptr %9, align 8, !tbaa !50
  br label %10

10:                                               ; preds = %32, %4
  %11 = load ptr, ptr %5, align 8, !tbaa !47
  %12 = icmp ne ptr %11, null
  br i1 %12, label %13, label %36

13:                                               ; preds = %10
  %14 = load ptr, ptr %7, align 8, !tbaa !49
  %15 = icmp ne ptr %14, null
  br i1 %15, label %16, label %22

16:                                               ; preds = %13
  %17 = load ptr, ptr %5, align 8, !tbaa !47
  %18 = load ptr, ptr %7, align 8, !tbaa !49
  %19 = load i64, ptr %8, align 8, !tbaa !50
  %20 = call ptr @match_header(ptr noundef %17, ptr noundef %18, i64 noundef %19)
  %21 = icmp ne ptr %20, null
  br i1 %21, label %31, label %22

22:                                               ; preds = %16, %13
  %23 = load ptr, ptr %5, align 8, !tbaa !47
  %24 = getelementptr inbounds nuw %struct.curl_slist, ptr %23, i32 0, i32 0
  %25 = load ptr, ptr %24, align 8, !tbaa !78
  %26 = call i64 @strlen(ptr noundef %25) #9
  %27 = load i64, ptr %6, align 8, !tbaa !50
  %28 = add i64 %26, %27
  %29 = load i64, ptr %9, align 8, !tbaa !50
  %30 = add i64 %29, %28
  store i64 %30, ptr %9, align 8, !tbaa !50
  br label %31

31:                                               ; preds = %22, %16
  br label %32

32:                                               ; preds = %31
  %33 = load ptr, ptr %5, align 8, !tbaa !47
  %34 = getelementptr inbounds nuw %struct.curl_slist, ptr %33, i32 0, i32 1
  %35 = load ptr, ptr %34, align 8, !tbaa !76
  store ptr %35, ptr %5, align 8, !tbaa !47
  br label %10, !llvm.loop !185

36:                                               ; preds = %10
  %37 = load i64, ptr %9, align 8, !tbaa !50
  call void @llvm.lifetime.end.p0(i64 8, ptr %9) #8
  ret i64 %37
}

; Function Attrs: nounwind uwtable
define internal i64 @multipart_size(ptr noundef %0) #0 {
  %2 = alloca i64, align 8
  %3 = alloca ptr, align 8
  %4 = alloca i64, align 8
  %5 = alloca i64, align 8
  %6 = alloca ptr, align 8
  %7 = alloca i32, align 4
  %8 = alloca i64, align 8
  store ptr %0, ptr %3, align 8, !tbaa !36
  call void @llvm.lifetime.start.p0(i64 8, ptr %4) #8
  call void @llvm.lifetime.start.p0(i64 8, ptr %5) #8
  call void @llvm.lifetime.start.p0(i64 8, ptr %6) #8
  %9 = load ptr, ptr %3, align 8, !tbaa !36
  %10 = icmp ne ptr %9, null
  br i1 %10, label %12, label %11

11:                                               ; preds = %1
  store i64 0, ptr %2, align 8
  store i32 1, ptr %7, align 4
  br label %43

12:                                               ; preds = %1
  store i64 52, ptr %5, align 8, !tbaa !50
  %13 = load i64, ptr %5, align 8, !tbaa !50
  store i64 %13, ptr %4, align 8, !tbaa !50
  %14 = load ptr, ptr %3, align 8, !tbaa !36
  %15 = getelementptr inbounds nuw %struct.curl_mime, ptr %14, i32 0, i32 1
  %16 = load ptr, ptr %15, align 8, !tbaa !37
  store ptr %16, ptr %6, align 8, !tbaa !4
  br label %17

17:                                               ; preds = %37, %12
  %18 = load ptr, ptr %6, align 8, !tbaa !4
  %19 = icmp ne ptr %18, null
  br i1 %19, label %20, label %41

20:                                               ; preds = %17
  call void @llvm.lifetime.start.p0(i64 8, ptr %8) #8
  %21 = load ptr, ptr %6, align 8, !tbaa !4
  %22 = call i64 @mime_size(ptr noundef %21)
  store i64 %22, ptr %8, align 8, !tbaa !50
  %23 = load i64, ptr %8, align 8, !tbaa !50
  %24 = icmp slt i64 %23, 0
  br i1 %24, label %25, label %27

25:                                               ; preds = %20
  %26 = load i64, ptr %8, align 8, !tbaa !50
  store i64 %26, ptr %4, align 8, !tbaa !50
  br label %27

27:                                               ; preds = %25, %20
  %28 = load i64, ptr %4, align 8, !tbaa !50
  %29 = icmp sge i64 %28, 0
  br i1 %29, label %30, label %36

30:                                               ; preds = %27
  %31 = load i64, ptr %5, align 8, !tbaa !50
  %32 = load i64, ptr %8, align 8, !tbaa !50
  %33 = add nsw i64 %31, %32
  %34 = load i64, ptr %4, align 8, !tbaa !50
  %35 = add nsw i64 %34, %33
  store i64 %35, ptr %4, align 8, !tbaa !50
  br label %36

36:                                               ; preds = %30, %27
  call void @llvm.lifetime.end.p0(i64 8, ptr %8) #8
  br label %37

37:                                               ; preds = %36
  %38 = load ptr, ptr %6, align 8, !tbaa !4
  %39 = getelementptr inbounds nuw %struct.curl_mimepart, ptr %38, i32 0, i32 1
  %40 = load ptr, ptr %39, align 8, !tbaa !39
  store ptr %40, ptr %6, align 8, !tbaa !4
  br label %17, !llvm.loop !184

41:                                               ; preds = %17
  %42 = load i64, ptr %4, align 8, !tbaa !50
  store i64 %42, ptr %2, align 8
  store i32 1, ptr %7, align 4
  br label %43

43:                                               ; preds = %41, %11
  call void @llvm.lifetime.end.p0(i64 8, ptr %6) #8
  call void @llvm.lifetime.end.p0(i64 8, ptr %5) #8
  call void @llvm.lifetime.end.p0(i64 8, ptr %4) #8
  %44 = load i64, ptr %2, align 8
  ret i64 %44
}

; Function Attrs: nounwind uwtable
define internal i64 @mime_size(ptr noundef %0) #0 {
  %2 = alloca ptr, align 8
  %3 = alloca i64, align 8
  store ptr %0, ptr %2, align 8, !tbaa !4
  call void @llvm.lifetime.start.p0(i64 8, ptr %3) #8
  %4 = load ptr, ptr %2, align 8, !tbaa !4
  %5 = getelementptr inbounds nuw %struct.curl_mimepart, ptr %4, i32 0, i32 2
  %6 = load i32, ptr %5, align 8, !tbaa !33
  %7 = icmp eq i32 %6, 4
  br i1 %7, label %8, label %15

8:                                                ; preds = %1
  %9 = load ptr, ptr %2, align 8, !tbaa !4
  %10 = getelementptr inbounds nuw %struct.curl_mimepart, ptr %9, i32 0, i32 8
  %11 = load ptr, ptr %10, align 8, !tbaa !27
  %12 = call i64 @multipart_size(ptr noundef %11)
  %13 = load ptr, ptr %2, align 8, !tbaa !4
  %14 = getelementptr inbounds nuw %struct.curl_mimepart, ptr %13, i32 0, i32 15
  store i64 %12, ptr %14, align 8, !tbaa !32
  br label %15

15:                                               ; preds = %8, %1
  %16 = load ptr, ptr %2, align 8, !tbaa !4
  %17 = getelementptr inbounds nuw %struct.curl_mimepart, ptr %16, i32 0, i32 15
  %18 = load i64, ptr %17, align 8, !tbaa !32
  store i64 %18, ptr %3, align 8, !tbaa !50
  %19 = load ptr, ptr %2, align 8, !tbaa !4
  %20 = getelementptr inbounds nuw %struct.curl_mimepart, ptr %19, i32 0, i32 17
  %21 = load ptr, ptr %20, align 8, !tbaa !48
  %22 = icmp ne ptr %21, null
  br i1 %22, label %23, label %31

23:                                               ; preds = %15
  %24 = load ptr, ptr %2, align 8, !tbaa !4
  %25 = getelementptr inbounds nuw %struct.curl_mimepart, ptr %24, i32 0, i32 17
  %26 = load ptr, ptr %25, align 8, !tbaa !48
  %27 = getelementptr inbounds nuw %struct.mime_encoder, ptr %26, i32 0, i32 2
  %28 = load ptr, ptr %27, align 8, !tbaa !106
  %29 = load ptr, ptr %2, align 8, !tbaa !4
  %30 = call i64 %28(ptr noundef %29)
  store i64 %30, ptr %3, align 8, !tbaa !50
  br label %31

31:                                               ; preds = %23, %15
  %32 = load i64, ptr %3, align 8, !tbaa !50
  %33 = icmp sge i64 %32, 0
  br i1 %33, label %34, label %55

34:                                               ; preds = %31
  %35 = load ptr, ptr %2, align 8, !tbaa !4
  %36 = getelementptr inbounds nuw %struct.curl_mimepart, ptr %35, i32 0, i32 3
  %37 = load i32, ptr %36, align 4, !tbaa !20
  %38 = and i32 %37, 2
  %39 = icmp ne i32 %38, 0
  br i1 %39, label %55, label %40

40:                                               ; preds = %34
  %41 = load ptr, ptr %2, align 8, !tbaa !4
  %42 = getelementptr inbounds nuw %struct.curl_mimepart, ptr %41, i32 0, i32 10
  %43 = load ptr, ptr %42, align 8, !tbaa !9
  %44 = call i64 @slist_size(ptr noundef %43, i64 noundef 2, ptr noundef null, i64 noundef 0)
  %45 = load i64, ptr %3, align 8, !tbaa !50
  %46 = add i64 %45, %44
  store i64 %46, ptr %3, align 8, !tbaa !50
  %47 = load ptr, ptr %2, align 8, !tbaa !4
  %48 = getelementptr inbounds nuw %struct.curl_mimepart, ptr %47, i32 0, i32 11
  %49 = load ptr, ptr %48, align 8, !tbaa !21
  %50 = call i64 @slist_size(ptr noundef %49, i64 noundef 2, ptr noundef @.str.18, i64 noundef 12)
  %51 = load i64, ptr %3, align 8, !tbaa !50
  %52 = add i64 %51, %50
  store i64 %52, ptr %3, align 8, !tbaa !50
  %53 = load i64, ptr %3, align 8, !tbaa !50
  %54 = add nsw i64 %53, 2
  store i64 %54, ptr %3, align 8, !tbaa !50
  br label %55

55:                                               ; preds = %40, %34, %31
  %56 = load i64, ptr %3, align 8, !tbaa !50
  call void @llvm.lifetime.end.p0(i64 8, ptr %3) #8
  ret i64 %56
}