; Function Attrs: nounwind uwtable
define internal fastcc i64 @mime_size(ptr noundef %0) unnamed_addr #0 {
  %2 = getelementptr inbounds nuw i8, ptr %0, i64 16
  %3 = load i32, ptr %2, align 8, !tbaa !23
  %4 = icmp eq i32 %3, 4
  br i1 %4, label %5, label %._crit_edge

._crit_edge:                                      ; preds = %1
  %.phi.trans.insert = getelementptr inbounds nuw i8, ptr %0, i64 112
  %.pre = load i64, ptr %.phi.trans.insert, align 8, !tbaa !22
  br label %14

5:                                                ; preds = %1
  %6 = getelementptr inbounds nuw i8, ptr %0, i64 56
  %7 = load ptr, ptr %6, align 8, !tbaa !19
  %.not.i = icmp eq ptr %7, null
  br i1 %.not.i, label %multipart_size.exit, label %.preheader

.preheader:                                       ; preds = %5
  %.013.in.i21 = getelementptr inbounds nuw i8, ptr %7, i64 8
  %.013.i22 = load ptr, ptr %.013.in.i21, align 8, !tbaa !44
  %.not17.i23 = icmp eq ptr %.013.i22, null
  br i1 %.not17.i23, label %multipart_size.exit, label %.lr.ph

.lr.ph:                                           ; preds = %.preheader, %.lr.ph
  %.013.i25 = phi ptr [ %.013.i, %.lr.ph ], [ %.013.i22, %.preheader ]
  %.014.i24 = phi i64 [ %.2.i, %.lr.ph ], [ 52, %.preheader ]
  %8 = tail call fastcc i64 @mime_size(ptr noundef nonnull %.013.i25)
  %9 = icmp slt i64 %8, 0
  %spec.select.i = select i1 %9, i64 %8, i64 %.014.i24
  %10 = add nsw i64 %8, 52
  %11 = icmp slt i64 %spec.select.i, 0
  %12 = select i1 %11, i64 0, i64 %10
  %.2.i = add nsw i64 %12, %spec.select.i
  %.013.in.i = getelementptr inbounds nuw i8, ptr %.013.i25, i64 8
  %.013.i = load ptr, ptr %.013.in.i, align 8, !tbaa !44
  %.not17.i = icmp eq ptr %.013.i, null
  br i1 %.not17.i, label %multipart_size.exit, label %.lr.ph, !llvm.loop !95

multipart_size.exit:                              ; preds = %.lr.ph, %.preheader, %5
  %.0.i = phi i64 [ 0, %5 ], [ 52, %.preheader ], [ %.2.i, %.lr.ph ]
  %13 = getelementptr inbounds nuw i8, ptr %0, i64 112
  store i64 %.0.i, ptr %13, align 8, !tbaa !22
  br label %14

14:                                               ; preds = %._crit_edge, %multipart_size.exit
  %15 = phi i64 [ %.pre, %._crit_edge ], [ %.0.i, %multipart_size.exit ]
  %16 = getelementptr inbounds nuw i8, ptr %0, i64 144
  %17 = load ptr, ptr %16, align 8, !tbaa !47
  %.not = icmp eq ptr %17, null
  br i1 %.not, label %22, label %18

18:                                               ; preds = %14
  %19 = getelementptr inbounds nuw i8, ptr %17, i64 16
  %20 = load ptr, ptr %19, align 8, !tbaa !96
  %21 = tail call i64 %20(ptr noundef nonnull %0) #18
  br label %22

22:                                               ; preds = %18, %14
  %.0 = phi i64 [ %21, %18 ], [ %15, %14 ]
  %23 = icmp sgt i64 %.0, -1
  br i1 %23, label %24, label %53

24:                                               ; preds = %22
  %25 = getelementptr inbounds nuw i8, ptr %0, i64 20
  %26 = load i32, ptr %25, align 4, !tbaa !24
  %27 = and i32 %26, 2
  %.not15 = icmp eq i32 %27, 0
  br i1 %.not15, label %28, label %53

28:                                               ; preds = %24
  %29 = getelementptr inbounds nuw i8, ptr %0, i64 72
  %30 = load ptr, ptr %29, align 8, !tbaa !27
  %.not15.i = icmp eq ptr %30, null
  br i1 %.not15.i, label %slist_size.exit, label %match_header.exit.thread.us.i

match_header.exit.thread.us.i:                    ; preds = %28, %match_header.exit.thread.us.i
  %.018.us.i = phi i64 [ %34, %match_header.exit.thread.us.i ], [ 0, %28 ]
  %.0916.us.i = phi ptr [ %36, %match_header.exit.thread.us.i ], [ %30, %28 ]
  %31 = load ptr, ptr %.0916.us.i, align 8, !tbaa !65
  %32 = tail call i64 @strlen(ptr noundef nonnull dereferenceable(1) %31) #19
  %33 = add i64 %.018.us.i, 2
  %34 = add i64 %33, %32
  %35 = getelementptr inbounds nuw i8, ptr %.0916.us.i, i64 8
  %36 = load ptr, ptr %35, align 8, !tbaa !68
  %.not.us.i = icmp eq ptr %36, null
  br i1 %.not.us.i, label %slist_size.exit, label %match_header.exit.thread.us.i, !llvm.loop !97

slist_size.exit:                                  ; preds = %match_header.exit.thread.us.i, %28
  %.0.lcssa.i = phi i64 [ 0, %28 ], [ %34, %match_header.exit.thread.us.i ]
  %37 = getelementptr inbounds nuw i8, ptr %0, i64 80
  %38 = load ptr, ptr %37, align 8, !tbaa !28
  %.not15.i16 = icmp eq ptr %38, null
  br i1 %.not15.i16, label %slist_size.exit20, label %.lr.ph.split.i

.lr.ph.split.i:                                   ; preds = %slist_size.exit, %match_header.exit.i
  %.018.i = phi i64 [ %.1.i, %match_header.exit.i ], [ 0, %slist_size.exit ]
  %.0916.i = phi ptr [ %49, %match_header.exit.i ], [ %38, %slist_size.exit ]
  %39 = load ptr, ptr %.0916.i, align 8, !tbaa !65
  %40 = tail call i32 @curl_strnequal(ptr noundef %39, ptr noundef nonnull @.str.18, i64 noundef range(i64 0, 26) 12) #18
  %.not.i.i = icmp eq i32 %40, 0
  %.pre.i = load ptr, ptr %.0916.i, align 8, !tbaa !65
  br i1 %.not.i.i, label %match_header.exit.thread.i, label %41

41:                                               ; preds = %.lr.ph.split.i
  %42 = getelementptr inbounds nuw i8, ptr %.pre.i, i64 12
  %43 = load i8, ptr %42, align 1, !tbaa !67
  %44 = icmp eq i8 %43, 58
  br i1 %44, label %match_header.exit.i, label %match_header.exit.thread.i

match_header.exit.thread.i:                       ; preds = %41, %.lr.ph.split.i
  %45 = tail call i64 @strlen(ptr noundef nonnull dereferenceable(1) %.pre.i) #19
  %46 = add i64 %.018.i, 2
  %47 = add i64 %46, %45
  br label %match_header.exit.i

match_header.exit.i:                              ; preds = %match_header.exit.thread.i, %41
  %.1.i = phi i64 [ %47, %match_header.exit.thread.i ], [ %.018.i, %41 ]
  %48 = getelementptr inbounds nuw i8, ptr %.0916.i, i64 8
  %49 = load ptr, ptr %48, align 8, !tbaa !68
  %.not.i18 = icmp eq ptr %49, null
  br i1 %.not.i18, label %slist_size.exit20, label %.lr.ph.split.i, !llvm.loop !97

slist_size.exit20:                                ; preds = %match_header.exit.i, %slist_size.exit
  %.0.lcssa.i19 = phi i64 [ 0, %slist_size.exit ], [ %.1.i, %match_header.exit.i ]
  %50 = add nuw i64 %.0, 2
  %51 = add i64 %50, %.0.lcssa.i
  %52 = add i64 %51, %.0.lcssa.i19
  br label %53

53:                                               ; preds = %slist_size.exit20, %24, %22
  %.1 = phi i64 [ %.0, %24 ], [ %52, %slist_size.exit20 ], [ %.0, %22 ]
  ret i64 %.1
}